Certificate:
    Data:
        Version: 3 (0x2)
        Serial Number: 1 (0x1)
        Signature Algorithm: sha256WithRSAEncryption
        Issuer: C=DE, O=Noice Waifu Corp., OU=Waifu Network CA, CN=The Waifu Network CA
        Validity
            Not Before: Nov 24 14:52:29 2023 GMT
            Not After : Nov 25 14:52:29 2028 GMT
        Subject: C=DE, O=Noice Waifu Corp., OU=Waifu CA, CN=The Waifu CA
        Subject Public Key Info:
            Public Key Algorithm: rsaEncryption
                Public-Key: (2048 bit)
                Modulus:
                    00:94:5c:b5:92:d9:7e:ed:35:76:52:50:e6:4a:98:
                    9f:e7:d5:ad:a4:35:f6:2e:a4:9c:4e:a9:ac:3a:13:
                    d8:06:48:a4:e4:82:84:e4:15:24:5e:45:4f:9e:84:
                    f0:ac:63:da:76:3c:83:7e:d8:2e:35:74:36:dd:37:
                    56:d5:69:39:cc:0b:59:a6:1b:c5:d1:7d:d3:ea:e1:
                    c3:08:96:12:26:af:9e:93:1f:e8:59:84:bc:1f:90:
                    83:a5:00:2b:52:0e:a9:cb:10:28:eb:ed:63:f9:53:
                    ae:51:b3:12:07:3e:a5:c2:be:25:c2:50:db:78:6f:
                    fc:5f:e2:87:38:98:62:1d:21:72:7e:ae:53:03:be:
                    67:14:03:c6:a9:02:b5:89:70:a0:bd:8a:f6:ae:a4:
                    8d:5c:e6:ec:be:a1:6a:51:86:a2:55:cb:25:03:ab:
                    af:87:29:17:5e:fb:07:5b:cd:13:62:69:e2:54:3d:
                    ea:e7:ab:af:84:c2:c3:f8:71:32:f4:ff:10:b0:84:
                    4b:53:bf:09:4d:d9:85:87:e3:8d:13:41:da:8c:dd:
                    ba:44:e9:c4:0b:b6:c9:7f:f4:32:61:86:c0:0c:cf:
                    d5:03:3f:1c:c5:30:73:63:92:ad:94:4b:51:9b:2a:
                    04:4c:cc:42:ac:c7:47:2e:75:a4:ba:62:69:f4:ea:
                    e1:09
                Exponent: 65537 (0x10001)
        X509v3 extensions:
            X509v3 Key Usage: critical
                Certificate Sign, CRL Sign
            X509v3 Basic Constraints: critical
                CA:TRUE, pathlen:0
            X509v3 Subject Key Identifier: 
                CB:B4:AC:B2:11:67:E2:9A:3E:AB:19:20:38:43:A5:29:37:F4:75:D4
            X509v3 Authority Key Identifier: 
                46:4A:50:B7:C3:2B:BD:6C:17:22:85:A7:72:B5:95:40:01:73:C6:75
            Authority Information Access: 
                CA Issuers - URI:http://waifu.local/network-ca.cer
            X509v3 CRL Distribution Points: 
                Full Name:
                  URI:http://waifu.local/network-ca.crl
            X509v3 Certificate Policies: 
                Policy: Waifu ASSurance
                Policy: Waifu 8008
    Signature Algorithm: sha256WithRSAEncryption
    Signature Value:
        04:69:56:36:4b:31:59:19:cc:5b:8c:2f:ac:e2:d8:c5:2c:8b:
        e0:6d:a4:16:a1:28:85:69:f1:07:08:f9:50:89:cc:c5:b1:8d:
        8a:5b:b0:cb:54:84:4a:9b:d2:14:b3:35:10:2d:ab:61:44:e6:
        2f:ff:fb:a6:7e:7b:f0:dc:a4:99:34:85:56:fa:89:fc:19:cd:
        a1:89:f8:a9:6b:91:7f:ec:bb:8a:ca:cd:b3:b2:9b:d4:54:d0:
        cc:a5:d5:c3:cc:85:75:52:2a:f4:d3:68:cc:e7:26:1d:25:4d:
        43:5d:d6:00:da:49:27:da:dc:55:ed:7d:05:f4:1f:7a:3f:66:
        59:85:13:14:f9:8c:ba:04:ce:b5:69:6d:36:38:ca:12:c9:59:
        33:0c:35:29:c9:52:ba:0d:e4:2d:c5:45:cf:85:6a:86:54:46:
        fc:fe:80:80:7c:73:ed:cf:69:00:01:f2:82:a6:49:a9:85:8d:
        40:6e:9c:5e:19:81:55:c3:5e:f8:2a:72:ae:98:f0:70:b8:50:
        f4:c2:03:1a:23:a0:60:e2:ad:2a:51:84:6a:a2:a2:7e:d0:83:
        48:bd:18:96:87:5d:dc:90:c0:e9:10:cd:64:7f:c6:e9:49:b3:
        2c:19:23:2d:52:8c:f2:0b:9b:56:d5:99:83:22:23:fc:11:48:
        60:be:a1:bd
-----BEGIN CERTIFICATE-----
MIIEJTCCAw2gAwIBAgIBATANBgkqhkiG9w0BAQsFADBjMQswCQYDVQQGEwJERTEa
MBgGA1UECgwRTm9pY2UgV2FpZnUgQ29ycC4xGTAXBgNVBAsMEFdhaWZ1IE5ldHdv
cmsgQ0ExHTAbBgNVBAMMFFRoZSBXYWlmdSBOZXR3b3JrIENBMB4XDTIzMTEyNDE0
NTIyOVoXDTI4MTEyNTE0NTIyOVowUzELMAkGA1UEBhMCREUxGjAYBgNVBAoMEU5v
aWNlIFdhaWZ1IENvcnAuMREwDwYDVQQLDAhXYWlmdSBDQTEVMBMGA1UEAwwMVGhl
IFdhaWZ1IENBMIIBIjANBgkqhkiG9w0BAQEFAAOCAQ8AMIIBCgKCAQEAlFy1ktl+
7TV2UlDmSpif59WtpDX2LqScTqmsOhPYBkik5IKE5BUkXkVPnoTwrGPadjyDftgu
NXQ23TdW1Wk5zAtZphvF0X3T6uHDCJYSJq+ekx/oWYS8H5CDpQArUg6pyxAo6+1j
+VOuUbMSBz6lwr4lwlDbeG/8X+KHOJhiHSFyfq5TA75nFAPGqQK1iXCgvYr2rqSN
XObsvqFqUYaiVcslA6uvhykXXvsHW80TYmniVD3q56uvhMLD+HEy9P8QsIRLU78J
TdmFh+ONE0HajN26ROnEC7bJf/QyYYbADM/VAz8cxTBzY5KtlEtRmyoETMxCrMdH
LnWkumJp9OrhCQIDAQABo4HzMIHwMA4GA1UdDwEB/wQEAwIBBjASBgNVHRMBAf8E
CDAGAQH/AgEAMB0GA1UdDgQWBBTLtKyyEWfimj6rGSA4Q6UpN/R11DAfBgNVHSME
GDAWgBRGSlC3wyu9bBcihadytZVAAXPGdTA9BggrBgEFBQcBAQQxMC8wLQYIKwYB
BQUHMAKGIWh0dHA6Ly93YWlmdS5sb2NhbC9uZXR3b3JrLWNhLmNlcjAyBgNVHR8E
KzApMCegJaAjhiFodHRwOi8vd2FpZnUubG9jYWwvbmV0d29yay1jYS5jcmwwFwYD
VR0gBBAwDjAFBgMqBAcwBQYDKgQIMA0GCSqGSIb3DQEBCwUAA4IBAQAEaVY2SzFZ
GcxbjC+s4tjFLIvgbaQWoSiFafEHCPlQiczFsY2KW7DLVIRKm9IUszUQLathROYv
//umfnvw3KSZNIVW+on8Gc2hifipa5F/7LuKys2zspvUVNDMpdXDzIV1Uir002jM
5yYdJU1DXdYA2kkn2txV7X0F9B96P2ZZhRMU+Yy6BM61aW02OMoSyVkzDDUpyVK6
DeQtxUXPhWqGVEb8/oCAfHPtz2kAAfKCpkmphY1AbpxeGYFVw174KnKumPBwuFD0
wgMaI6Bg4q0qUYRqoqJ+0INIvRiWh13ckMDpEM1kf8bpSbMsGSMtUozyC5tW1ZmD
IiP8EUhgvqG9
-----END CERTIFICATE-----
