Certificate:
    Data:
        Version: 3 (0x2)
        Serial Number: 2 (0x2)
        Signature Algorithm: sha256WithRSAEncryption
        Issuer: C=DE, O=Noice Waifu Corp., OU=Waifu CA, CN=Waifu Component CA
        Validity
            Not Before: Dec 12 12:49:35 2023 GMT
            Not After : Dec 11 12:49:35 2025 GMT
        Subject: C=DE, O=Noice Waifu Corp., CN=waifu-client
        Subject Public Key Info:
            Public Key Algorithm: rsaEncryption
                Public-Key: (2048 bit)
                Modulus:
                    00:b7:37:d0:37:78:5c:8d:69:2b:71:b1:65:b4:f1:
                    38:9c:77:a5:87:14:a8:a7:e0:56:20:90:7c:c6:64:
                    d9:41:d9:3c:6d:20:34:54:31:51:41:72:56:0c:10:
                    01:16:62:1a:6d:9c:db:5d:07:75:5f:f8:7f:1a:cb:
                    ce:49:53:1d:3d:99:9b:e2:6e:cf:3f:d6:33:9b:de:
                    23:71:fe:93:68:9e:60:5f:e2:e9:ab:bf:3b:8d:93:
                    6a:a8:20:16:a1:eb:8e:12:45:ae:e0:c2:e3:a6:de:
                    b4:c2:22:39:af:af:4a:34:2c:e4:f2:37:04:ee:bd:
                    8b:fb:47:71:2e:4d:d0:6d:e9:1c:6e:70:0f:92:d6:
                    76:1f:28:59:e8:d5:ca:95:05:1a:fd:e2:72:10:59:
                    56:7f:c1:0b:38:ab:e3:f1:8a:c9:03:e0:a0:48:13:
                    f3:2a:86:03:4e:a6:6a:59:d4:c6:5a:54:85:e1:71:
                    26:b1:64:72:a1:ff:e8:24:d8:26:2d:a9:e7:5d:a8:
                    8b:5d:a9:c2:74:82:8c:f9:01:5a:b1:51:11:96:4f:
                    99:9c:01:b2:16:2b:f7:5e:a1:a9:6e:c8:b0:3e:66:
                    83:01:10:4a:a6:3f:68:24:db:1e:dc:e9:40:5b:80:
                    a7:d8:0d:e9:7e:d8:b1:99:55:47:ed:8a:2d:af:10:
                    fb:bf
                Exponent: 65537 (0x10001)
        X509v3 extensions:
            X509v3 Key Usage: critical
                Digital Signature
            X509v3 Basic Constraints: 
                CA:FALSE
            X509v3 Extended Key Usage: 
                TLS Web Client Authentication
            X509v3 Subject Key Identifier: 
                23:42:C1:BD:0B:44:F7:A8:59:15:E2:C9:48:34:A3:52:A0:AE:1F:7E
            X509v3 Authority Key Identifier: 
                14:78:BB:9B:62:BF:95:DB:FF:8A:F7:9F:7A:91:05:6A:DD:51:76:35
            Authority Information Access: 
                CA Issuers - URI:http://waifu.local/component-ca.cer
                OCSP - URI:http://ocsp.waifu.local
            X509v3 CRL Distribution Points: 
                Full Name:
                  URI:http://waifu.local/component-ca.crl
            X509v3 Certificate Policies: 
                Policy: Waifu 8008
    Signature Algorithm: sha256WithRSAEncryption
    Signature Value:
        49:f4:3e:81:cb:22:b4:b8:29:ff:cc:2e:f0:42:b3:f2:55:92:
        38:5e:2c:8a:6c:6f:63:be:b3:f2:d5:7e:33:32:2f:a9:41:d8:
        6e:23:93:ca:b6:bf:f2:2b:d2:d0:b5:00:58:18:f8:db:bd:1f:
        f4:fd:53:55:9e:66:ec:90:a3:ef:8b:b6:5c:30:02:13:d9:ab:
        d1:7a:31:db:91:2b:21:bf:93:7a:fa:d5:4f:88:98:b8:f6:99:
        c7:68:21:8a:a5:a8:75:38:e1:14:33:95:5f:52:48:8f:fc:7b:
        5a:28:f0:ae:47:1b:9d:da:5d:8f:83:0e:49:65:1b:eb:57:1d:
        3f:25:10:38:46:88:17:fe:e6:b5:d1:0a:f3:34:ae:09:91:15:
        20:f4:30:dc:93:18:2b:e7:70:8c:39:24:86:3e:4b:07:cf:0a:
        60:ed:18:d1:c6:d5:02:7e:0d:bd:4f:ec:62:3b:d2:72:a5:00:
        f3:78:b4:fb:36:a2:07:a9:eb:4b:59:99:0a:cd:71:b7:f8:e0:
        fe:13:d3:f3:af:60:46:2b:b6:10:6a:2e:18:23:4a:84:74:1a:
        78:f6:9b:f1:53:21:f3:22:75:cb:bc:03:17:4c:b8:bf:9c:62:
        9c:1e:3d:8f:73:8a:8d:33:ec:2c:6e:f1:f9:cd:f4:9b:7b:5b:
        42:b2:74:8e
-----BEGIN CERTIFICATE-----
MIIEODCCAyCgAwIBAgIBAjANBgkqhkiG9w0BAQsFADBZMQswCQYDVQQGEwJERTEa
MBgGA1UECgwRTm9pY2UgV2FpZnUgQ29ycC4xETAPBgNVBAsMCFdhaWZ1IENBMRsw
GQYDVQQDDBJXYWlmdSBDb21wb25lbnQgQ0EwHhcNMjMxMjEyMTI0OTM1WhcNMjUx
MjExMTI0OTM1WjBAMQswCQYDVQQGEwJERTEaMBgGA1UECgwRTm9pY2UgV2FpZnUg
Q29ycC4xFTATBgNVBAMMDHdhaWZ1LWNsaWVudDCCASIwDQYJKoZIhvcNAQEBBQAD
ggEPADCCAQoCggEBALc30Dd4XI1pK3GxZbTxOJx3pYcUqKfgViCQfMZk2UHZPG0g
NFQxUUFyVgwQARZiGm2c210HdV/4fxrLzklTHT2Zm+Juzz/WM5veI3H+k2ieYF/i
6au/O42TaqggFqHrjhJFruDC46betMIiOa+vSjQs5PI3BO69i/tHcS5N0G3pHG5w
D5LWdh8oWejVypUFGv3ichBZVn/BCzir4/GKyQPgoEgT8yqGA06malnUxlpUheFx
JrFkcqH/6CTYJi2p512oi12pwnSCjPkBWrFREZZPmZwBshYr916hqW7IsD5mgwEQ
SqY/aCTbHtzpQFuAp9gN6X7YsZlVR+2KLa8Q+78CAwEAAaOCASIwggEeMA4GA1Ud
DwEB/wQEAwIHgDAJBgNVHRMEAjAAMBMGA1UdJQQMMAoGCCsGAQUFBwMCMB0GA1Ud
DgQWBBQjQsG9C0T3qFkV4slINKNSoK4ffjAfBgNVHSMEGDAWgBQUeLubYr+V2/+K
9596kQVq3VF2NTBkBggrBgEFBQcBAQRYMFYwLwYIKwYBBQUHMAKGI2h0dHA6Ly93
YWlmdS5sb2NhbC9jb21wb25lbnQtY2EuY2VyMCMGCCsGAQUFBzABhhdodHRwOi8v
b2NzcC53YWlmdS5sb2NhbDA0BgNVHR8ELTArMCmgJ6AlhiNodHRwOi8vd2FpZnUu
bG9jYWwvY29tcG9uZW50LWNhLmNybDAQBgNVHSAECTAHMAUGAyoECDANBgkqhkiG
9w0BAQsFAAOCAQEASfQ+gcsitLgp/8wu8EKz8lWSOF4simxvY76z8tV+MzIvqUHY
biOTyra/8ivS0LUAWBj4270f9P1TVZ5m7JCj74u2XDACE9mr0Xox25ErIb+TevrV
T4iYuPaZx2ghiqWodTjhFDOVX1JIj/x7Wijwrkcbndpdj4MOSWUb61cdPyUQOEaI
F/7mtdEK8zSuCZEVIPQw3JMYK+dwjDkkhj5LB88KYO0Y0cbVAn4NvU/sYjvScqUA
83i0+zaiB6nrS1mZCs1xt/jg/hPT869gRiu2EGouGCNKhHQaePab8VMh8yJ1y7wD
F0y4v5xinB49j3OKjTPsLG7x+c30m3tbQrJ0jg==
-----END CERTIFICATE-----
