Certificate:
    Data:
        Version: 3 (0x2)
        Serial Number: 2 (0x2)
        Signature Algorithm: sha256WithRSAEncryption
        Issuer: C=DE, O=Noice Waifu Corp., OU=Waifu CA, CN=The Waifu CA
        Validity
            Not Before: Nov 24 14:57:25 2023 GMT
            Not After : Nov 23 14:57:25 2025 GMT
        Subject: C=DE, O=Noice Waifu Corp., CN=waifu
        Subject Public Key Info:
            Public Key Algorithm: rsaEncryption
                Public-Key: (2048 bit)
                Modulus:
                    00:d3:a4:85:d0:95:3b:35:d2:80:92:41:13:b9:eb:
                    49:a1:48:b2:62:11:65:32:4d:2c:e7:a2:2a:eb:ef:
                    d4:54:45:4e:02:3b:69:eb:2f:3a:bc:f3:a1:c3:ca:
                    c7:85:d3:fb:90:aa:e2:60:41:85:f9:74:dd:e5:40:
                    0e:62:ec:94:f6:c2:3a:90:22:57:dc:ab:ea:ad:74:
                    85:d8:be:14:3d:26:18:97:f9:ac:93:80:36:71:5f:
                    93:12:e0:c3:0c:68:b3:92:df:63:01:f1:f4:ed:4e:
                    34:61:66:34:61:bb:95:cf:b2:ac:da:bb:c1:4c:cb:
                    6d:d9:3b:78:51:3a:65:af:e3:1b:b3:b0:67:8e:aa:
                    91:8d:e4:c8:38:3f:fd:c4:82:69:3c:be:8a:32:1f:
                    be:ee:26:90:e0:32:bf:eb:d9:29:a0:73:84:80:dc:
                    18:8b:8a:cb:d7:9b:95:79:65:04:64:28:98:3d:10:
                    6d:4a:fc:5c:70:29:d9:67:b5:a4:6f:dd:ba:09:95:
                    88:bb:8e:e9:cd:6e:4e:d6:cf:a9:26:8e:0b:66:79:
                    1b:e8:4c:bd:73:59:96:2b:9e:e5:98:75:be:61:d9:
                    2a:8f:40:c3:41:77:29:8e:b3:f4:38:69:2a:86:6f:
                    40:0b:f2:2f:d2:4e:36:7e:41:7b:69:10:a8:95:6e:
                    be:95
                Exponent: 65537 (0x10001)
        X509v3 extensions:
            X509v3 Key Usage: critical
                Digital Signature
            X509v3 Basic Constraints: 
                CA:FALSE
            X509v3 Extended Key Usage: 
                TLS Web Client Authentication
            X509v3 Subject Key Identifier: 
                04:D3:78:72:30:FC:1B:AF:B8:A2:10:2F:05:84:AA:92:4B:52:25:7D
            X509v3 Authority Key Identifier: 
                CB:B4:AC:B2:11:67:E2:9A:3E:AB:19:20:38:43:A5:29:37:F4:75:D4
            Authority Information Access: 
                CA Issuers - URI:http://waifu.local/component-ca.cer
                OCSP - URI:http://ocsp.waifu.local
            X509v3 CRL Distribution Points: 
                Full Name:
                  URI:http://waifu.local/component-ca.crl
            X509v3 Certificate Policies: 
                Policy: Waifu 8008
    Signature Algorithm: sha256WithRSAEncryption
    Signature Value:
        5f:9e:ba:29:42:86:1a:0f:db:76:76:57:05:bc:00:cf:11:09:
        24:5f:b7:eb:09:5e:75:44:cb:01:e7:84:f5:92:80:26:08:4b:
        60:11:bb:c2:a6:2a:18:cc:04:96:6c:45:37:52:bc:ce:07:5f:
        cc:84:a2:09:59:e6:17:4a:45:a7:46:91:3a:90:13:45:be:64:
        36:38:62:6b:4e:ca:eb:f2:22:32:e6:fa:a1:3f:59:da:6e:30:
        a5:e2:39:8b:b6:3f:1b:79:22:16:ab:08:81:00:33:d5:33:67:
        5d:e7:d6:b9:d9:71:b0:51:9a:a1:fe:e3:94:9d:91:05:5e:e9:
        1e:91:6e:b7:3a:4d:9d:01:b8:22:73:d3:2f:50:1e:78:7d:57:
        72:df:7d:01:26:01:21:06:9f:54:40:2b:a9:c7:01:ff:d5:00:
        5d:c3:2d:4d:90:2a:ce:42:5c:07:65:25:4f:ad:21:95:fe:19:
        21:fc:d6:c1:07:0d:01:5f:53:74:34:d4:52:30:74:70:23:7d:
        0b:0f:88:34:b3:01:9f:f9:4b:83:a9:53:8c:5f:17:0d:e5:58:
        83:12:66:8f:ad:0d:31:e2:a1:4e:4e:78:02:65:45:e8:d0:47:
        b9:fb:66:01:05:51:da:93:2f:27:3d:23:f5:13:3b:e1:96:c4:
        9a:3c:3f:23
-----BEGIN CERTIFICATE-----
MIIEKzCCAxOgAwIBAgIBAjANBgkqhkiG9w0BAQsFADBTMQswCQYDVQQGEwJERTEa
MBgGA1UECgwRTm9pY2UgV2FpZnUgQ29ycC4xETAPBgNVBAsMCFdhaWZ1IENBMRUw
EwYDVQQDDAxUaGUgV2FpZnUgQ0EwHhcNMjMxMTI0MTQ1NzI1WhcNMjUxMTIzMTQ1
NzI1WjA5MQswCQYDVQQGEwJERTEaMBgGA1UECgwRTm9pY2UgV2FpZnUgQ29ycC4x
DjAMBgNVBAMMBXdhaWZ1MIIBIjANBgkqhkiG9w0BAQEFAAOCAQ8AMIIBCgKCAQEA
06SF0JU7NdKAkkETuetJoUiyYhFlMk0s56Iq6+/UVEVOAjtp6y86vPOhw8rHhdP7
kKriYEGF+XTd5UAOYuyU9sI6kCJX3KvqrXSF2L4UPSYYl/msk4A2cV+TEuDDDGiz
kt9jAfH07U40YWY0YbuVz7Ks2rvBTMtt2Tt4UTplr+Mbs7BnjqqRjeTIOD/9xIJp
PL6KMh++7iaQ4DK/69kpoHOEgNwYi4rL15uVeWUEZCiYPRBtSvxccCnZZ7Wkb926
CZWIu47pzW5O1s+pJo4LZnkb6Ey9c1mWK57lmHW+Ydkqj0DDQXcpjrP0OGkqhm9A
C/Iv0k42fkF7aRColW6+lQIDAQABo4IBIjCCAR4wDgYDVR0PAQH/BAQDAgeAMAkG
A1UdEwQCMAAwEwYDVR0lBAwwCgYIKwYBBQUHAwIwHQYDVR0OBBYEFATTeHIw/Buv
uKIQLwWEqpJLUiV9MB8GA1UdIwQYMBaAFMu0rLIRZ+KaPqsZIDhDpSk39HXUMGQG
CCsGAQUFBwEBBFgwVjAvBggrBgEFBQcwAoYjaHR0cDovL3dhaWZ1LmxvY2FsL2Nv
bXBvbmVudC1jYS5jZXIwIwYIKwYBBQUHMAGGF2h0dHA6Ly9vY3NwLndhaWZ1Lmxv
Y2FsMDQGA1UdHwQtMCswKaAnoCWGI2h0dHA6Ly93YWlmdS5sb2NhbC9jb21wb25l
bnQtY2EuY3JsMBAGA1UdIAQJMAcwBQYDKgQIMA0GCSqGSIb3DQEBCwUAA4IBAQBf
nropQoYaD9t2dlcFvADPEQkkX7frCV51RMsB54T1koAmCEtgEbvCpioYzASWbEU3
UrzOB1/MhKIJWeYXSkWnRpE6kBNFvmQ2OGJrTsrr8iIy5vqhP1nabjCl4jmLtj8b
eSIWqwiBADPVM2dd59a52XGwUZqh/uOUnZEFXukekW63Ok2dAbgic9MvUB54fVdy
330BJgEhBp9UQCupxwH/1QBdwy1NkCrOQlwHZSVPrSGV/hkh/NbBBw0BX1N0NNRS
MHRwI30LD4g0swGf+UuDqVOMXxcN5ViDEmaPrQ0x4qFOTngCZUXo0Ee5+2YBBVHa
ky8nPSP1EzvhlsSaPD8j
-----END CERTIFICATE-----
