Certificate:
    Data:
        Version: 3 (0x2)
        Serial Number: 1 (0x1)
        Signature Algorithm: sha256WithRSAEncryption
        Issuer: C=DE, O=Noice Waifu Corp., OU=Waifu CA, CN=The Waifu CA
        Validity
            Not Before: Nov 24 14:54:35 2023 GMT
            Not After : Nov 23 14:54:35 2025 GMT
        Subject: C=DE, O=Noice Waifu Corp., CN=waifu
        Subject Public Key Info:
            Public Key Algorithm: rsaEncryption
                Public-Key: (2048 bit)
                Modulus:
                    00:af:43:24:50:25:47:20:a0:7c:a1:da:6c:af:4e:
                    45:13:8b:77:ee:58:c0:8b:d5:60:03:e2:92:38:d2:
                    4d:95:92:10:a2:fe:b0:d9:0b:87:a5:57:db:57:2f:
                    20:74:d6:50:3c:fc:af:42:71:9c:cb:50:e4:1c:99:
                    05:7a:b0:da:a3:2f:00:4b:10:d4:0e:b2:6d:fe:5b:
                    ea:2f:01:6d:9d:b7:99:be:ac:a3:25:92:67:f9:7c:
                    08:36:d1:65:d9:01:3f:e1:47:2e:23:14:2b:54:ee:
                    3e:e2:63:44:a6:f0:d4:2f:98:37:60:8e:bf:59:49:
                    ea:1b:d1:97:6e:61:2b:02:fc:6c:17:6d:3b:6a:7c:
                    c2:fe:36:56:56:bb:2d:0f:47:b9:2c:f1:38:26:3a:
                    6f:e5:7d:0e:dc:10:07:4c:d1:4b:d5:a6:f4:dc:7b:
                    5c:71:fc:96:39:64:67:2d:10:b7:ca:03:10:fc:a0:
                    f9:85:ec:5c:66:57:de:d1:3a:61:19:da:a1:84:3c:
                    47:1b:f5:06:e1:e8:77:f9:28:91:0e:39:08:73:fe:
                    89:53:1d:fe:66:4f:cd:c4:7d:68:7e:7f:1d:2d:6d:
                    7f:fe:8f:74:86:18:a5:6b:e7:52:7b:75:d7:b0:fe:
                    8f:7b:16:5a:2b:2f:e7:1a:e4:75:f0:3a:ed:69:dc:
                    fb:15
                Exponent: 65537 (0x10001)
        X509v3 extensions:
            X509v3 Key Usage: critical
                Digital Signature, Key Encipherment
            X509v3 Basic Constraints: 
                CA:FALSE
            X509v3 Extended Key Usage: 
                TLS Web Server Authentication, TLS Web Client Authentication
            X509v3 Subject Key Identifier: 
                9C:74:91:88:20:18:B3:7A:1D:5C:56:9F:98:DD:48:7D:3E:41:2E:CB
            X509v3 Authority Key Identifier: 
                CB:B4:AC:B2:11:67:E2:9A:3E:AB:19:20:38:43:A5:29:37:F4:75:D4
            Authority Information Access: 
                CA Issuers - URI:http://waifu.local/component-ca.cer
                OCSP - URI:http://ocsp.waifu.local
            X509v3 CRL Distribution Points: 
                Full Name:
                  URI:http://waifu.local/component-ca.crl
            X509v3 Certificate Policies: 
                Policy: Waifu 8008
    Signature Algorithm: sha256WithRSAEncryption
    Signature Value:
        31:09:61:c7:65:a1:05:a1:b1:8d:cf:6e:6c:8c:cd:ff:65:72:
        24:30:57:42:65:db:99:cf:4a:29:ba:9b:b8:d7:58:7e:59:89:
        6a:1a:f5:f9:2d:98:f7:05:19:a7:9f:79:ca:bb:f5:83:f6:8b:
        a1:45:3e:ba:e6:03:3c:ce:f4:f6:e1:5b:ee:cf:19:9d:45:a0:
        0a:9e:53:5e:98:fa:b1:73:52:0a:f6:c6:c3:00:44:ab:c0:79:
        19:29:62:e4:5a:68:7d:a7:a8:82:df:b1:53:56:67:aa:31:55:
        8d:36:a6:90:96:49:fb:62:56:2f:26:7b:2a:53:b9:e1:e0:c1:
        7a:b2:ea:93:78:c5:2e:b3:6b:e9:e9:f0:f7:72:1e:cc:dd:ca:
        00:05:14:33:aa:fc:91:73:a2:94:79:a7:7c:40:89:7e:62:8d:
        09:62:77:3d:af:eb:19:4a:d6:07:bc:18:70:96:56:cb:f1:89:
        64:ef:c0:e2:55:2a:c3:6b:42:80:47:2c:31:0b:cd:b4:c3:c8:
        4a:92:d6:b1:bf:b7:dd:ed:40:be:5c:45:12:83:1b:37:da:bc:
        f6:07:17:b4:93:8f:fc:a4:89:f5:55:14:2c:e6:a3:45:f4:a4:
        0a:b6:c2:fe:80:be:d7:0b:2c:71:4e:3d:32:93:47:95:fa:b1:
        3d:a2:82:21
-----BEGIN CERTIFICATE-----
MIIENTCCAx2gAwIBAgIBATANBgkqhkiG9w0BAQsFADBTMQswCQYDVQQGEwJERTEa
MBgGA1UECgwRTm9pY2UgV2FpZnUgQ29ycC4xETAPBgNVBAsMCFdhaWZ1IENBMRUw
EwYDVQQDDAxUaGUgV2FpZnUgQ0EwHhcNMjMxMTI0MTQ1NDM1WhcNMjUxMTIzMTQ1
NDM1WjA5MQswCQYDVQQGEwJERTEaMBgGA1UECgwRTm9pY2UgV2FpZnUgQ29ycC4x
DjAMBgNVBAMMBXdhaWZ1MIIBIjANBgkqhkiG9w0BAQEFAAOCAQ8AMIIBCgKCAQEA
r0MkUCVHIKB8odpsr05FE4t37ljAi9VgA+KSONJNlZIQov6w2QuHpVfbVy8gdNZQ
PPyvQnGcy1DkHJkFerDaoy8ASxDUDrJt/lvqLwFtnbeZvqyjJZJn+XwINtFl2QE/
4UcuIxQrVO4+4mNEpvDUL5g3YI6/WUnqG9GXbmErAvxsF207anzC/jZWVrstD0e5
LPE4Jjpv5X0O3BAHTNFL1ab03HtccfyWOWRnLRC3ygMQ/KD5hexcZlfe0TphGdqh
hDxHG/UG4eh3+SiRDjkIc/6JUx3+Zk/NxH1ofn8dLW1//o90hhila+dSe3XXsP6P
exZaKy/nGuR18Drtadz7FQIDAQABo4IBLDCCASgwDgYDVR0PAQH/BAQDAgWgMAkG
A1UdEwQCMAAwHQYDVR0lBBYwFAYIKwYBBQUHAwEGCCsGAQUFBwMCMB0GA1UdDgQW
BBScdJGIIBizeh1cVp+Y3Uh9PkEuyzAfBgNVHSMEGDAWgBTLtKyyEWfimj6rGSA4
Q6UpN/R11DBkBggrBgEFBQcBAQRYMFYwLwYIKwYBBQUHMAKGI2h0dHA6Ly93YWlm
dS5sb2NhbC9jb21wb25lbnQtY2EuY2VyMCMGCCsGAQUFBzABhhdodHRwOi8vb2Nz
cC53YWlmdS5sb2NhbDA0BgNVHR8ELTArMCmgJ6AlhiNodHRwOi8vd2FpZnUubG9j
YWwvY29tcG9uZW50LWNhLmNybDAQBgNVHSAECTAHMAUGAyoECDANBgkqhkiG9w0B
AQsFAAOCAQEAMQlhx2WhBaGxjc9ubIzN/2VyJDBXQmXbmc9KKbqbuNdYflmJahr1
+S2Y9wUZp595yrv1g/aLoUU+uuYDPM709uFb7s8ZnUWgCp5TXpj6sXNSCvbGwwBE
q8B5GSli5Fpofaeogt+xU1ZnqjFVjTamkJZJ+2JWLyZ7KlO54eDBerLqk3jFLrNr
6enw93IezN3KAAUUM6r8kXOilHmnfECJfmKNCWJ3Pa/rGUrWB7wYcJZWy/GJZO/A
4lUqw2tCgEcsMQvNtMPISpLWsb+33e1AvlxFEoMbN9q89gcXtJOP/KSJ9VUULOaj
RfSkCrbC/oC+1wsscU49MpNHlfqxPaKCIQ==
-----END CERTIFICATE-----
