Certificate:
    Data:
        Version: 3 (0x2)
        Serial Number: 1 (0x1)
        Signature Algorithm: sha256WithRSAEncryption
        Issuer: C=DE, O=Noice Waifu Corp., OU=Waifu CA, CN=Waifu Component CA
        Validity
            Not Before: Dec 12 12:49:24 2023 GMT
            Not After : Dec 11 12:49:24 2025 GMT
        Subject: C=DE, O=Noice Waifu Corp., CN=waifu-server
        Subject Public Key Info:
            Public Key Algorithm: rsaEncryption
                Public-Key: (2048 bit)
                Modulus:
                    00:a3:17:4b:95:ec:a6:0b:ea:b0:ae:79:f9:dc:d1:
                    5f:35:c0:9e:18:6f:06:03:16:54:a9:6a:65:e6:a3:
                    d7:c9:ae:e0:7d:7f:f9:87:7a:52:f4:c7:6a:a6:25:
                    6c:b5:8e:73:fe:fc:de:9c:01:b5:cb:c3:c7:08:13:
                    50:d0:64:b1:1a:f1:7f:91:1f:90:5e:6a:54:71:eb:
                    18:89:f4:5f:cc:d3:73:01:58:3e:f7:ef:ab:ff:07:
                    29:8e:aa:65:7f:7f:a3:cf:c0:c8:f9:f7:b4:86:4b:
                    b2:5d:01:38:76:35:0e:12:4e:97:dd:9c:f7:be:d3:
                    5f:60:b6:90:b1:e1:b7:32:50:65:28:66:ec:b7:fe:
                    d5:f6:51:fc:52:79:d8:df:04:b7:26:94:3f:3b:9b:
                    45:f1:64:51:1b:22:b0:f9:82:81:b0:0c:2d:18:34:
                    b4:b6:fa:49:3c:0a:1f:51:da:32:f9:56:15:77:cf:
                    8f:72:ea:fd:22:81:5f:9e:16:86:2f:c3:16:94:3b:
                    d8:0f:45:81:c1:d2:40:98:c7:68:0f:2d:9d:e0:6a:
                    f8:12:97:4b:29:b2:ab:6c:03:8f:a3:32:fd:cb:b5:
                    54:6d:17:d9:26:8d:4c:e6:81:56:df:8e:99:d8:7e:
                    70:b4:ab:d5:81:9a:9b:f0:d6:54:3d:64:91:0b:75:
                    b7:3f
                Exponent: 65537 (0x10001)
        X509v3 extensions:
            X509v3 Key Usage: critical
                Digital Signature, Key Encipherment
            X509v3 Basic Constraints: 
                CA:FALSE
            X509v3 Extended Key Usage: 
                TLS Web Server Authentication, TLS Web Client Authentication
            X509v3 Subject Key Identifier: 
                6A:4F:FC:D0:DD:57:A1:E6:9F:5F:89:74:DF:46:11:DC:41:A4:57:BF
            X509v3 Authority Key Identifier: 
                14:78:BB:9B:62:BF:95:DB:FF:8A:F7:9F:7A:91:05:6A:DD:51:76:35
            Authority Information Access: 
                CA Issuers - URI:http://waifu.local/component-ca.cer
                OCSP - URI:http://ocsp.waifu.local
            X509v3 CRL Distribution Points: 
                Full Name:
                  URI:http://waifu.local/component-ca.crl
            X509v3 Certificate Policies: 
                Policy: Waifu 8008
    Signature Algorithm: sha256WithRSAEncryption
    Signature Value:
        06:25:d4:31:33:c9:4e:82:3a:2d:54:e9:5f:5f:69:dd:ff:86:
        1d:e5:83:55:69:7e:f3:db:bd:06:31:ca:0b:3b:1d:19:86:e3:
        64:48:53:c4:4d:6e:9b:6f:91:9b:09:27:6a:c3:b3:1d:05:7d:
        0a:c2:0b:c1:78:d1:06:32:c7:3a:82:84:b4:dc:e5:46:6c:f7:
        bf:87:af:8a:61:76:ef:6a:4f:4c:e5:66:71:c8:73:5a:d2:bd:
        4f:6c:75:f0:89:8a:69:a3:e5:ba:1b:ae:55:7b:e9:b1:53:7e:
        b7:c7:62:73:f9:29:c4:b1:9a:dc:b7:0b:09:88:d4:66:b2:5f:
        c9:f2:ef:89:f3:69:d7:54:47:a3:b1:ba:af:93:86:26:53:60:
        1f:c7:00:fb:a1:4e:aa:69:f8:2a:f8:5c:28:97:22:bb:52:d1:
        a7:5a:e9:f9:53:77:f0:aa:33:e0:95:e7:4c:d2:be:55:77:57:
        d8:bd:93:a7:ff:9a:44:62:c1:75:05:ac:2a:c0:e7:70:5d:96:
        f9:7c:6c:21:1e:f6:55:d3:1b:ca:5d:f2:59:75:a7:01:c3:10:
        d6:3f:99:a0:21:8e:a3:e9:eb:2c:45:5f:6e:6f:b0:6c:d0:99:
        8c:db:48:5f:84:24:f6:76:11:64:b7:0b:a3:5a:40:b6:81:ea:
        9e:a9:90:68
-----BEGIN CERTIFICATE-----
MIIEQjCCAyqgAwIBAgIBATANBgkqhkiG9w0BAQsFADBZMQswCQYDVQQGEwJERTEa
MBgGA1UECgwRTm9pY2UgV2FpZnUgQ29ycC4xETAPBgNVBAsMCFdhaWZ1IENBMRsw
GQYDVQQDDBJXYWlmdSBDb21wb25lbnQgQ0EwHhcNMjMxMjEyMTI0OTI0WhcNMjUx
MjExMTI0OTI0WjBAMQswCQYDVQQGEwJERTEaMBgGA1UECgwRTm9pY2UgV2FpZnUg
Q29ycC4xFTATBgNVBAMMDHdhaWZ1LXNlcnZlcjCCASIwDQYJKoZIhvcNAQEBBQAD
ggEPADCCAQoCggEBAKMXS5XspgvqsK55+dzRXzXAnhhvBgMWVKlqZeaj18mu4H1/
+Yd6UvTHaqYlbLWOc/783pwBtcvDxwgTUNBksRrxf5EfkF5qVHHrGIn0X8zTcwFY
Pvfvq/8HKY6qZX9/o8/AyPn3tIZLsl0BOHY1DhJOl92c977TX2C2kLHhtzJQZShm
7Lf+1fZR/FJ52N8EtyaUPzubRfFkURsisPmCgbAMLRg0tLb6STwKH1HaMvlWFXfP
j3Lq/SKBX54Whi/DFpQ72A9FgcHSQJjHaA8tneBq+BKXSymyq2wDj6My/cu1VG0X
2SaNTOaBVt+Omdh+cLSr1YGam/DWVD1kkQt1tz8CAwEAAaOCASwwggEoMA4GA1Ud
DwEB/wQEAwIFoDAJBgNVHRMEAjAAMB0GA1UdJQQWMBQGCCsGAQUFBwMBBggrBgEF
BQcDAjAdBgNVHQ4EFgQUak/80N1XoeafX4l030YR3EGkV78wHwYDVR0jBBgwFoAU
FHi7m2K/ldv/ivefepEFat1RdjUwZAYIKwYBBQUHAQEEWDBWMC8GCCsGAQUFBzAC
hiNodHRwOi8vd2FpZnUubG9jYWwvY29tcG9uZW50LWNhLmNlcjAjBggrBgEFBQcw
AYYXaHR0cDovL29jc3Aud2FpZnUubG9jYWwwNAYDVR0fBC0wKzApoCegJYYjaHR0
cDovL3dhaWZ1LmxvY2FsL2NvbXBvbmVudC1jYS5jcmwwEAYDVR0gBAkwBzAFBgMq
BAgwDQYJKoZIhvcNAQELBQADggEBAAYl1DEzyU6COi1U6V9fad3/hh3lg1VpfvPb
vQYxygs7HRmG42RIU8RNbptvkZsJJ2rDsx0FfQrCC8F40QYyxzqChLTc5UZs97+H
r4phdu9qT0zlZnHIc1rSvU9sdfCJimmj5bobrlV76bFTfrfHYnP5KcSxmty3CwmI
1GayX8ny74nzaddUR6Oxuq+ThiZTYB/HAPuhTqpp+Cr4XCiXIrtS0ada6flTd/Cq
M+CV50zSvlV3V9i9k6f/mkRiwXUFrCrA53Bdlvl8bCEe9lXTG8pd8ll1pwHDENY/
maAhjqPp6yxFX25vsGzQmYzbSF+EJPZ2EWS3C6NaQLaB6p6pkGg=
-----END CERTIFICATE-----
