Certificate:
    Data:
        Version: 3 (0x2)
        Serial Number: 1 (0x1)
        Signature Algorithm: sha256WithRSAEncryption
        Issuer: C=DE, O=Noice Waifu Corp., OU=Waifu Network CA, CN=The Waifu Network CA
        Validity
            Not Before: Nov 24 14:52:29 2023 GMT
            Not After : Nov 25 14:52:29 2028 GMT
        Subject: C=DE, O=Noice Waifu Corp., OU=Waifu CA, CN=The Waifu CA
        Subject Public Key Info:
            Public Key Algorithm: rsaEncryption
                Public-Key: (2048 bit)
                Modulus:
                    00:94:5c:b5:92:d9:7e:ed:35:76:52:50:e6:4a:98:
                    9f:e7:d5:ad:a4:35:f6:2e:a4:9c:4e:a9:ac:3a:13:
                    d8:06:48:a4:e4:82:84:e4:15:24:5e:45:4f:9e:84:
                    f0:ac:63:da:76:3c:83:7e:d8:2e:35:74:36:dd:37:
                    56:d5:69:39:cc:0b:59:a6:1b:c5:d1:7d:d3:ea:e1:
                    c3:08:96:12:26:af:9e:93:1f:e8:59:84:bc:1f:90:
                    83:a5:00:2b:52:0e:a9:cb:10:28:eb:ed:63:f9:53:
                    ae:51:b3:12:07:3e:a5:c2:be:25:c2:50:db:78:6f:
                    fc:5f:e2:87:38:98:62:1d:21:72:7e:ae:53:03:be:
                    67:14:03:c6:a9:02:b5:89:70:a0:bd:8a:f6:ae:a4:
                    8d:5c:e6:ec:be:a1:6a:51:86:a2:55:cb:25:03:ab:
                    af:87:29:17:5e:fb:07:5b:cd:13:62:69:e2:54:3d:
                    ea:e7:ab:af:84:c2:c3:f8:71:32:f4:ff:10:b0:84:
                    4b:53:bf:09:4d:d9:85:87:e3:8d:13:41:da:8c:dd:
                    ba:44:e9:c4:0b:b6:c9:7f:f4:32:61:86:c0:0c:cf:
                    d5:03:3f:1c:c5:30:73:63:92:ad:94:4b:51:9b:2a:
                    04:4c:cc:42:ac:c7:47:2e:75:a4:ba:62:69:f4:ea:
                    e1:09
                Exponent: 65537 (0x10001)
        X509v3 extensions:
            X509v3 Key Usage: critical
                Certificate Sign, CRL Sign
            X509v3 Basic Constraints: critical
                CA:TRUE, pathlen:0
            X509v3 Subject Key Identifier: 
                CB:B4:AC:B2:11:67:E2:9A:3E:AB:19:20:38:43:A5:29:37:F4:75:D4
            X509v3 Authority Key Identifier: 
                46:4A:50:B7:C3:2B:BD:6C:17:22:85:A7:72:B5:95:40:01:73:C6:75
            Authority Information Access: 
                CA Issuers - URI:http://waifu.local/network-ca.cer
            X509v3 CRL Distribution Points: 
                Full Name:
                  URI:http://waifu.local/network-ca.crl
            X509v3 Certificate Policies: 
                Policy: Waifu ASSurance
                Policy: Waifu 8008
    Signature Algorithm: sha256WithRSAEncryption
    Signature Value:
        04:69:56:36:4b:31:59:19:cc:5b:8c:2f:ac:e2:d8:c5:2c:8b:
        e0:6d:a4:16:a1:28:85:69:f1:07:08:f9:50:89:cc:c5:b1:8d:
        8a:5b:b0:cb:54:84:4a:9b:d2:14:b3:35:10:2d:ab:61:44:e6:
        2f:ff:fb:a6:7e:7b:f0:dc:a4:99:34:85:56:fa:89:fc:19:cd:
        a1:89:f8:a9:6b:91:7f:ec:bb:8a:ca:cd:b3:b2:9b:d4:54:d0:
        cc:a5:d5:c3:cc:85:75:52:2a:f4:d3:68:cc:e7:26:1d:25:4d:
        43:5d:d6:00:da:49:27:da:dc:55:ed:7d:05:f4:1f:7a:3f:66:
        59:85:13:14:f9:8c:ba:04:ce:b5:69:6d:36:38:ca:12:c9:59:
        33:0c:35:29:c9:52:ba:0d:e4:2d:c5:45:cf:85:6a:86:54:46:
        fc:fe:80:80:7c:73:ed:cf:69:00:01:f2:82:a6:49:a9:85:8d:
        40:6e:9c:5e:19:81:55:c3:5e:f8:2a:72:ae:98:f0:70:b8:50:
        f4:c2:03:1a:23:a0:60:e2:ad:2a:51:84:6a:a2:a2:7e:d0:83:
        48:bd:18:96:87:5d:dc:90:c0:e9:10:cd:64:7f:c6:e9:49:b3:
        2c:19:23:2d:52:8c:f2:0b:9b:56:d5:99:83:22:23:fc:11:48:
        60:be:a1:bd
-----BEGIN CERTIFICATE-----
MIIEJTCCAw2gAwIBAgIBATANBgkqhkiG9w0BAQsFADBjMQswCQYDVQQGEwJERTEa
MBgGA1UECgwRTm9pY2UgV2FpZnUgQ29ycC4xGTAXBgNVBAsMEFdhaWZ1IE5ldHdv
cmsgQ0ExHTAbBgNVBAMMFFRoZSBXYWlmdSBOZXR3b3JrIENBMB4XDTIzMTEyNDE0
NTIyOVoXDTI4MTEyNTE0NTIyOVowUzELMAkGA1UEBhMCREUxGjAYBgNVBAoMEU5v
aWNlIFdhaWZ1IENvcnAuMREwDwYDVQQLDAhXYWlmdSBDQTEVMBMGA1UEAwwMVGhl
IFdhaWZ1IENBMIIBIjANBgkqhkiG9w0BAQEFAAOCAQ8AMIIBCgKCAQEAlFy1ktl+
7TV2UlDmSpif59WtpDX2LqScTqmsOhPYBkik5IKE5BUkXkVPnoTwrGPadjyDftgu
NXQ23TdW1Wk5zAtZphvF0X3T6uHDCJYSJq+ekx/oWYS8H5CDpQArUg6pyxAo6+1j
+VOuUbMSBz6lwr4lwlDbeG/8X+KHOJhiHSFyfq5TA75nFAPGqQK1iXCgvYr2rqSN
XObsvqFqUYaiVcslA6uvhykXXvsHW80TYmniVD3q56uvhMLD+HEy9P8QsIRLU78J
TdmFh+ONE0HajN26ROnEC7bJf/QyYYbADM/VAz8cxTBzY5KtlEtRmyoETMxCrMdH
LnWkumJp9OrhCQIDAQABo4HzMIHwMA4GA1UdDwEB/wQEAwIBBjASBgNVHRMBAf8E
CDAGAQH/AgEAMB0GA1UdDgQWBBTLtKyyEWfimj6rGSA4Q6UpN/R11DAfBgNVHSME
GDAWgBRGSlC3wyu9bBcihadytZVAAXPGdTA9BggrBgEFBQcBAQQxMC8wLQYIKwYB
BQUHMAKGIWh0dHA6Ly93YWlmdS5sb2NhbC9uZXR3b3JrLWNhLmNlcjAyBgNVHR8E
KzApMCegJaAjhiFodHRwOi8vd2FpZnUubG9jYWwvbmV0d29yay1jYS5jcmwwFwYD
VR0gBBAwDjAFBgMqBAcwBQYDKgQIMA0GCSqGSIb3DQEBCwUAA4IBAQAEaVY2SzFZ
GcxbjC+s4tjFLIvgbaQWoSiFafEHCPlQiczFsY2KW7DLVIRKm9IUszUQLathROYv
//umfnvw3KSZNIVW+on8Gc2hifipa5F/7LuKys2zspvUVNDMpdXDzIV1Uir002jM
5yYdJU1DXdYA2kkn2txV7X0F9B96P2ZZhRMU+Yy6BM61aW02OMoSyVkzDDUpyVK6
DeQtxUXPhWqGVEb8/oCAfHPtz2kAAfKCpkmphY1AbpxeGYFVw174KnKumPBwuFD0
wgMaI6Bg4q0qUYRqoqJ+0INIvRiWh13ckMDpEM1kf8bpSbMsGSMtUozyC5tW1ZmD
IiP8EUhgvqG9
-----END CERTIFICATE-----
Certificate:
    Data:
        Version: 3 (0x2)
        Serial Number: 2 (0x2)
        Signature Algorithm: sha256WithRSAEncryption
        Issuer: C=DE, O=Noice Waifu Corp., OU=Waifu CA, CN=The Waifu CA
        Validity
            Not Before: Nov 24 14:52:18 2023 GMT
            Not After : Nov 25 14:52:18 2028 GMT
        Subject: C=DE, O=Noice Waifu Corp., OU=Waifu Network CA, CN=The Waifu Network CA
        Subject Public Key Info:
            Public Key Algorithm: rsaEncryption
                Public-Key: (2048 bit)
                Modulus:
                    00:b0:17:95:83:22:44:6c:17:d9:9f:b0:c3:f6:eb:
                    3b:89:da:45:ef:d8:92:fa:08:4b:81:6e:c4:f9:65:
                    59:80:f9:8e:e8:c0:27:59:d7:1f:20:30:6b:98:75:
                    bc:81:18:b5:2b:a8:25:24:19:5a:8e:ea:73:b9:bc:
                    ce:8b:31:be:36:28:cc:be:3a:77:80:fe:6f:fe:31:
                    8f:e7:be:b0:45:15:c5:56:15:ec:3f:53:1b:13:d5:
                    65:15:97:92:37:e0:e0:8c:0e:f1:44:0a:72:5d:83:
                    9b:3e:6d:32:f8:bf:f4:d0:7d:33:72:89:1b:e0:44:
                    f6:8b:da:ab:15:a3:cc:5d:15:7a:05:b1:be:46:0d:
                    38:f7:90:f4:eb:3f:24:e5:9c:f5:11:ed:5d:79:8d:
                    33:49:c0:08:b2:09:97:f9:40:47:06:ab:27:df:d3:
                    85:4b:9b:b3:a1:83:76:84:8c:0e:14:65:e6:bd:24:
                    7c:67:06:ec:c0:2a:15:cc:ab:e3:75:af:be:20:b7:
                    ec:60:50:dc:30:c5:a6:ea:3e:bc:ca:d8:20:5b:97:
                    8c:5e:76:be:14:1d:27:23:10:24:1c:42:42:8f:9b:
                    92:14:62:b5:88:0e:9b:56:38:cb:66:ea:ac:e5:c4:
                    93:bb:b3:ab:5f:fa:60:84:b7:24:11:05:c2:30:84:
                    37:75
                Exponent: 65537 (0x10001)
        X509v3 extensions:
            X509v3 Key Usage: critical
                Certificate Sign, CRL Sign
            X509v3 Basic Constraints: critical
                CA:TRUE
            X509v3 Subject Key Identifier: 
                46:4A:50:B7:C3:2B:BD:6C:17:22:85:A7:72:B5:95:40:01:73:C6:75
            X509v3 Authority Key Identifier: 
                12:FE:5F:32:85:98:79:AB:EE:2F:A3:77:1E:17:7C:CC:03:C6:B0:9A
            Authority Information Access: 
                CA Issuers - URI:http://waifu.local/root-ca.cer
            X509v3 CRL Distribution Points: 
                Full Name:
                  URI:http://waifu.local/root-ca.crl
            X509v3 Certificate Policies: 
                Policy: Waifu ASSurance
                Policy: Waifu 8008
    Signature Algorithm: sha256WithRSAEncryption
    Signature Value:
        34:e6:7b:af:d8:bd:75:fd:6d:de:9b:e4:67:58:a1:01:b4:cd:
        d2:63:30:94:dd:8f:dd:11:3f:9e:9a:ca:32:8b:85:42:2e:6b:
        d7:08:a8:b0:27:6e:ce:37:0c:60:ab:a6:4f:be:d3:c3:d0:ae:
        39:ea:f6:88:9d:a1:8b:48:49:8c:de:bc:cf:d7:b3:ac:84:32:
        71:b0:61:71:eb:3e:8e:c1:3f:a3:a7:05:73:42:e7:f9:d6:48:
        fd:1d:23:fe:ee:d4:10:c5:c5:a6:29:e7:57:71:51:98:88:40:
        2d:0b:be:e0:fa:05:25:0e:7a:3a:ec:66:85:69:55:b8:3b:d3:
        67:2e:72:ca:37:ee:b4:7c:1f:e1:7a:37:b0:57:13:39:6b:8a:
        ae:d7:b4:e7:03:c0:e1:8c:51:8f:3b:99:f4:0b:4c:d4:8e:ec:
        2e:be:5b:cb:e3:94:ac:72:2d:11:b1:02:7d:39:14:fc:fd:ac:
        b5:b6:fa:8d:42:9f:ae:a4:03:20:7d:68:07:61:26:42:ab:3f:
        a0:34:ec:08:70:8a:ed:78:30:6d:e6:1a:b3:b5:42:f6:af:e2:
        b8:ef:63:99:8b:02:56:3d:92:28:10:55:90:c9:79:cf:82:e6:
        e9:1c:f9:a8:c4:4c:14:56:a9:98:d2:1a:4d:69:b5:0b:e4:ff:
        94:8d:eb:f4
-----BEGIN CERTIFICATE-----
MIIEHDCCAwSgAwIBAgIBAjANBgkqhkiG9w0BAQsFADBTMQswCQYDVQQGEwJERTEa
MBgGA1UECgwRTm9pY2UgV2FpZnUgQ29ycC4xETAPBgNVBAsMCFdhaWZ1IENBMRUw
EwYDVQQDDAxUaGUgV2FpZnUgQ0EwHhcNMjMxMTI0MTQ1MjE4WhcNMjgxMTI1MTQ1
MjE4WjBjMQswCQYDVQQGEwJERTEaMBgGA1UECgwRTm9pY2UgV2FpZnUgQ29ycC4x
GTAXBgNVBAsMEFdhaWZ1IE5ldHdvcmsgQ0ExHTAbBgNVBAMMFFRoZSBXYWlmdSBO
ZXR3b3JrIENBMIIBIjANBgkqhkiG9w0BAQEFAAOCAQ8AMIIBCgKCAQEAsBeVgyJE
bBfZn7DD9us7idpF79iS+ghLgW7E+WVZgPmO6MAnWdcfIDBrmHW8gRi1K6glJBla
jupzubzOizG+NijMvjp3gP5v/jGP576wRRXFVhXsP1MbE9VlFZeSN+DgjA7xRApy
XYObPm0y+L/00H0zcokb4ET2i9qrFaPMXRV6BbG+Rg0495D06z8k5Zz1Ee1deY0z
ScAIsgmX+UBHBqsn39OFS5uzoYN2hIwOFGXmvSR8ZwbswCoVzKvjda++ILfsYFDc
MMWm6j68ytggW5eMXna+FB0nIxAkHEJCj5uSFGK1iA6bVjjLZuqs5cSTu7OrX/pg
hLckEQXCMIQ3dQIDAQABo4HqMIHnMA4GA1UdDwEB/wQEAwIBBjAPBgNVHRMBAf8E
BTADAQH/MB0GA1UdDgQWBBRGSlC3wyu9bBcihadytZVAAXPGdTAfBgNVHSMEGDAW
gBQS/l8yhZh5q+4vo3ceF3zMA8awmjA6BggrBgEFBQcBAQQuMCwwKgYIKwYBBQUH
MAKGHmh0dHA6Ly93YWlmdS5sb2NhbC9yb290LWNhLmNlcjAvBgNVHR8EKDAmMCSg
IqAghh5odHRwOi8vd2FpZnUubG9jYWwvcm9vdC1jYS5jcmwwFwYDVR0gBBAwDjAF
BgMqBAcwBQYDKgQIMA0GCSqGSIb3DQEBCwUAA4IBAQA05nuv2L11/W3em+RnWKEB
tM3SYzCU3Y/dET+emsoyi4VCLmvXCKiwJ27ONwxgq6ZPvtPD0K456vaInaGLSEmM
3rzP17OshDJxsGFx6z6OwT+jpwVzQuf51kj9HSP+7tQQxcWmKedXcVGYiEAtC77g
+gUlDno67GaFaVW4O9NnLnLKN+60fB/hejewVxM5a4qu17TnA8DhjFGPO5n0C0zU
juwuvlvL45Ssci0RsQJ9ORT8/ay1tvqNQp+upAMgfWgHYSZCqz+gNOwIcIrteDBt
5hqztUL2r+K472OZiwJWPZIoEFWQyXnPgubpHPmoxEwUVqmY0hpNabUL5P+Ujev0
-----END CERTIFICATE-----
Certificate:
    Data:
        Version: 3 (0x2)
        Serial Number: 1 (0x1)
        Signature Algorithm: sha256WithRSAEncryption
        Issuer: C=DE, O=Noice Waifu Corp., OU=Waifu CA, CN=The Waifu CA
        Validity
            Not Before: Nov 24 14:51:57 2023 GMT
            Not After : Nov 26 14:51:57 2033 GMT
        Subject: C=DE, O=Noice Waifu Corp., OU=Waifu CA, CN=The Waifu CA
        Subject Public Key Info:
            Public Key Algorithm: rsaEncryption
                Public-Key: (2048 bit)
                Modulus:
                    00:81:38:18:10:cc:8a:41:e3:21:c4:5e:5c:48:65:
                    9e:68:9d:bf:d2:ee:ee:aa:2e:bd:5f:f3:1f:e6:f3:
                    1a:81:3e:6c:3a:81:e9:28:65:24:e3:57:f8:8f:88:
                    4f:e3:99:2d:0a:4a:d5:61:9e:9f:21:72:8e:14:bf:
                    be:75:a9:f3:9e:5a:6e:3d:69:e6:2c:91:ae:b1:10:
                    b1:aa:33:1c:3e:a3:c2:bc:8b:7d:de:e5:ce:0d:db:
                    c5:5e:9c:b5:54:60:c1:b0:06:af:14:61:cc:9d:d9:
                    1a:e0:9d:c9:da:fe:7c:44:65:04:5e:73:b0:3c:a7:
                    96:c5:68:1f:8b:a4:ac:36:b0:47:ef:43:79:16:88:
                    46:53:7e:f0:6b:73:12:af:e8:e8:17:04:fe:69:83:
                    7b:15:3c:07:04:c6:05:65:3d:6d:e6:9f:87:25:ae:
                    17:a9:59:0f:43:c0:b1:20:43:23:77:d3:ac:e7:b7:
                    2b:60:1e:64:ff:b5:9f:04:b1:b7:ef:1d:2c:42:64:
                    4c:00:15:8c:b8:7c:8f:0d:dc:7b:00:06:e5:05:9a:
                    a0:77:fc:c0:f6:7b:21:76:a2:8f:f6:91:93:5d:ab:
                    af:9f:e8:b4:eb:90:8a:3a:da:34:b1:bb:16:30:1c:
                    e1:7d:ee:a5:9b:f9:24:ff:16:49:59:a2:3f:23:3f:
                    a2:ff
                Exponent: 65537 (0x10001)
        X509v3 extensions:
            X509v3 Key Usage: critical
                Certificate Sign, CRL Sign
            X509v3 Basic Constraints: critical
                CA:TRUE
            X509v3 Subject Key Identifier: 
                12:FE:5F:32:85:98:79:AB:EE:2F:A3:77:1E:17:7C:CC:03:C6:B0:9A
            X509v3 Authority Key Identifier: 
                12:FE:5F:32:85:98:79:AB:EE:2F:A3:77:1E:17:7C:CC:03:C6:B0:9A
    Signature Algorithm: sha256WithRSAEncryption
    Signature Value:
        80:24:ee:cc:dd:ac:84:fa:e0:c7:f3:85:64:75:af:31:1c:3e:
        63:ef:4c:62:ba:e4:ff:24:46:05:ca:9a:de:59:8b:e0:a7:1b:
        b9:a3:a4:2d:8a:06:3d:0b:e3:91:fa:2e:b0:8d:49:1e:be:4e:
        fa:dd:86:e2:95:fa:1c:af:d3:df:8b:7f:85:d6:45:bd:0c:32:
        35:48:f8:70:56:b1:a2:c8:a0:7a:87:2f:49:4f:3f:90:89:14:
        a4:a4:90:7f:3b:b7:e4:fb:2f:ac:f5:db:53:29:ae:2d:07:56:
        9d:60:59:53:d2:6e:11:ca:20:d9:04:52:29:d6:88:af:82:66:
        b0:0e:83:31:7f:95:77:6a:60:54:0b:e6:78:79:e5:56:3c:63:
        0d:b1:82:f8:6a:50:6e:74:87:f6:b2:bd:3e:15:09:3f:5e:32:
        5b:76:21:84:da:d7:f1:f1:9c:7e:1b:fc:1a:98:2b:b1:76:64:
        c4:4b:0f:d0:a0:8d:08:2f:71:ae:29:0f:7e:03:02:72:0e:91:
        02:35:8d:8d:e2:a0:18:a6:65:73:c7:2b:fb:b5:0b:9a:b3:f7:
        58:51:15:92:54:3c:a2:ca:25:79:e9:21:80:7d:66:78:87:64:
        e3:cd:5a:e0:5a:b0:cb:ba:12:44:3f:04:0f:74:54:57:3b:d4:
        62:cf:7b:3f
-----BEGIN CERTIFICATE-----
MIIDhDCCAmygAwIBAgIBATANBgkqhkiG9w0BAQsFADBTMQswCQYDVQQGEwJERTEa
MBgGA1UECgwRTm9pY2UgV2FpZnUgQ29ycC4xETAPBgNVBAsMCFdhaWZ1IENBMRUw
EwYDVQQDDAxUaGUgV2FpZnUgQ0EwHhcNMjMxMTI0MTQ1MTU3WhcNMzMxMTI2MTQ1
MTU3WjBTMQswCQYDVQQGEwJERTEaMBgGA1UECgwRTm9pY2UgV2FpZnUgQ29ycC4x
ETAPBgNVBAsMCFdhaWZ1IENBMRUwEwYDVQQDDAxUaGUgV2FpZnUgQ0EwggEiMA0G
CSqGSIb3DQEBAQUAA4IBDwAwggEKAoIBAQCBOBgQzIpB4yHEXlxIZZ5onb/S7u6q
Lr1f8x/m8xqBPmw6gekoZSTjV/iPiE/jmS0KStVhnp8hco4Uv751qfOeWm49aeYs
ka6xELGqMxw+o8K8i33e5c4N28VenLVUYMGwBq8UYcyd2Rrgncna/nxEZQRec7A8
p5bFaB+LpKw2sEfvQ3kWiEZTfvBrcxKv6OgXBP5pg3sVPAcExgVlPW3mn4clrhep
WQ9DwLEgQyN306zntytgHmT/tZ8EsbfvHSxCZEwAFYy4fI8N3HsABuUFmqB3/MD2
eyF2oo/2kZNdq6+f6LTrkIo62jSxuxYwHOF97qWb+ST/FklZoj8jP6L/AgMBAAGj
YzBhMA4GA1UdDwEB/wQEAwIBBjAPBgNVHRMBAf8EBTADAQH/MB0GA1UdDgQWBBQS
/l8yhZh5q+4vo3ceF3zMA8awmjAfBgNVHSMEGDAWgBQS/l8yhZh5q+4vo3ceF3zM
A8awmjANBgkqhkiG9w0BAQsFAAOCAQEAgCTuzN2shPrgx/OFZHWvMRw+Y+9MYrrk
/yRGBcqa3lmL4KcbuaOkLYoGPQvjkfousI1JHr5O+t2G4pX6HK/T34t/hdZFvQwy
NUj4cFaxosigeocvSU8/kIkUpKSQfzu35PsvrPXbUymuLQdWnWBZU9JuEcog2QRS
KdaIr4JmsA6DMX+Vd2pgVAvmeHnlVjxjDbGC+GpQbnSH9rK9PhUJP14yW3YhhNrX
8fGcfhv8GpgrsXZkxEsP0KCNCC9xrikPfgMCcg6RAjWNjeKgGKZlc8cr+7ULmrP3
WFEVklQ8osoleekhgH1meIdk481a4Fqwy7oSRD8ED3RUVzvUYs97Pw==
-----END CERTIFICATE-----
