Certificate:
    Data:
        Version: 3 (0x2)
        Serial Number: 1 (0x1)
        Signature Algorithm: sha256WithRSAEncryption
        Issuer: C=DE, O=Noice Waifu Corp., OU=Waifu Network CA, CN=The Waifu Network CA
        Validity
            Not Before: Dec 12 12:49:11 2023 GMT
            Not After : Dec 13 12:49:11 2028 GMT
        Subject: C=DE, O=Noice Waifu Corp., OU=Waifu CA, CN=Waifu Component CA
        Subject Public Key Info:
            Public Key Algorithm: rsaEncryption
                Public-Key: (2048 bit)
                Modulus:
                    00:8b:2e:05:8f:c0:73:bc:58:98:17:e1:b5:77:fe:
                    aa:e3:d4:cb:0a:02:76:43:94:f6:e3:68:9f:b3:e3:
                    c7:0b:97:49:06:83:82:05:46:3c:a8:a1:80:14:d7:
                    f0:75:af:b9:c3:54:48:e4:a6:29:14:9b:be:b6:2f:
                    b5:5d:a9:4a:c8:d7:1b:21:0d:cd:70:e1:77:81:8c:
                    57:85:03:03:f3:28:be:c0:f3:d0:19:35:58:f8:50:
                    33:d2:ef:d5:d1:b8:7a:f6:fb:08:81:05:57:3e:a0:
                    f2:11:10:5e:34:3d:83:ae:11:d5:9c:37:31:3d:4b:
                    61:21:e8:3e:ad:39:b9:87:45:4c:32:99:88:90:d2:
                    9f:fb:a2:ee:7c:00:4a:45:4b:2f:dc:63:a9:13:29:
                    f6:d1:98:a0:6e:2a:e5:ae:99:e5:01:7c:da:15:c4:
                    4c:cb:40:c9:9e:e8:82:71:c8:cb:ed:ca:9b:b2:20:
                    e7:52:dc:0f:fd:21:42:bc:75:4a:7b:32:a9:49:91:
                    d6:31:29:a5:80:8b:7d:95:90:58:8f:39:8e:fc:f8:
                    65:25:bf:b7:96:6c:19:eb:43:57:66:1c:6e:3a:fa:
                    3f:94:45:b5:45:6a:a0:15:92:73:13:7e:78:f6:cc:
                    ac:df:0b:49:d2:68:1f:72:ab:c1:bc:c4:04:4a:ca:
                    01:c3
                Exponent: 65537 (0x10001)
        X509v3 extensions:
            X509v3 Key Usage: critical
                Certificate Sign, CRL Sign
            X509v3 Basic Constraints: critical
                CA:TRUE, pathlen:0
            X509v3 Subject Key Identifier: 
                14:78:BB:9B:62:BF:95:DB:FF:8A:F7:9F:7A:91:05:6A:DD:51:76:35
            X509v3 Authority Key Identifier: 
                0D:88:4B:B5:3D:67:00:25:CF:AC:BD:10:BF:D6:E6:3D:4D:E0:25:1F
            Authority Information Access: 
                CA Issuers - URI:http://waifu.local/network-ca.cer
            X509v3 CRL Distribution Points: 
                Full Name:
                  URI:http://waifu.local/network-ca.crl
            X509v3 Certificate Policies: 
                Policy: Waifu ASSurance
                Policy: Waifu 8008
    Signature Algorithm: sha256WithRSAEncryption
    Signature Value:
        aa:2b:3d:a3:c3:ac:4f:d9:0d:de:ac:64:9d:7d:ed:f0:d5:ed:
        e1:af:33:87:09:f8:62:81:45:31:34:bc:4c:58:2a:73:f7:5d:
        c4:27:de:09:f5:ac:b7:26:4e:6e:d7:91:c3:da:ac:16:16:12:
        0e:92:c0:29:d2:dc:88:39:06:73:69:0a:6c:4c:67:b0:15:34:
        f8:bd:44:10:30:00:4a:62:eb:b1:48:71:bb:10:1b:fc:75:ed:
        0d:60:88:18:98:c7:aa:23:a1:4b:b8:38:af:60:30:12:a2:38:
        c9:7c:ec:26:46:99:ae:9c:a9:9a:8e:e3:42:53:94:ff:a4:72:
        78:6d:ff:c0:82:cc:84:dd:92:70:ee:b1:b1:76:80:03:b9:7f:
        23:1a:30:18:71:d0:a9:c9:74:a7:50:14:33:53:73:d3:71:03:
        3c:cd:d4:e4:c5:90:04:70:60:d1:b4:f7:c8:01:c4:7e:d4:33:
        a0:23:fd:15:b2:20:5c:e9:2b:63:b5:9d:6f:06:8c:a0:af:32:
        62:a6:dc:db:89:ee:3f:bf:dc:67:50:7a:53:86:66:3a:2c:76:
        03:18:33:8e:51:de:09:15:94:f6:68:20:c6:ed:00:28:ee:30:
        15:f3:5e:18:98:fd:6a:97:8d:58:ba:29:5f:f3:c7:17:20:d2:
        fe:29:fc:0a
-----BEGIN CERTIFICATE-----
MIIEKzCCAxOgAwIBAgIBATANBgkqhkiG9w0BAQsFADBjMQswCQYDVQQGEwJERTEa
MBgGA1UECgwRTm9pY2UgV2FpZnUgQ29ycC4xGTAXBgNVBAsMEFdhaWZ1IE5ldHdv
cmsgQ0ExHTAbBgNVBAMMFFRoZSBXYWlmdSBOZXR3b3JrIENBMB4XDTIzMTIxMjEy
NDkxMVoXDTI4MTIxMzEyNDkxMVowWTELMAkGA1UEBhMCREUxGjAYBgNVBAoMEU5v
aWNlIFdhaWZ1IENvcnAuMREwDwYDVQQLDAhXYWlmdSBDQTEbMBkGA1UEAwwSV2Fp
ZnUgQ29tcG9uZW50IENBMIIBIjANBgkqhkiG9w0BAQEFAAOCAQ8AMIIBCgKCAQEA
iy4Fj8BzvFiYF+G1d/6q49TLCgJ2Q5T242ifs+PHC5dJBoOCBUY8qKGAFNfwda+5
w1RI5KYpFJu+ti+1XalKyNcbIQ3NcOF3gYxXhQMD8yi+wPPQGTVY+FAz0u/V0bh6
9vsIgQVXPqDyERBeND2DrhHVnDcxPUthIeg+rTm5h0VMMpmIkNKf+6LufABKRUsv
3GOpEyn20ZigbirlrpnlAXzaFcRMy0DJnuiCccjL7cqbsiDnUtwP/SFCvHVKezKp
SZHWMSmlgIt9lZBYjzmO/PhlJb+3lmwZ60NXZhxuOvo/lEW1RWqgFZJzE3549sys
3wtJ0mgfcqvBvMQESsoBwwIDAQABo4HzMIHwMA4GA1UdDwEB/wQEAwIBBjASBgNV
HRMBAf8ECDAGAQH/AgEAMB0GA1UdDgQWBBQUeLubYr+V2/+K9596kQVq3VF2NTAf
BgNVHSMEGDAWgBQNiEu1PWcAJc+svRC/1uY9TeAlHzA9BggrBgEFBQcBAQQxMC8w
LQYIKwYBBQUHMAKGIWh0dHA6Ly93YWlmdS5sb2NhbC9uZXR3b3JrLWNhLmNlcjAy
BgNVHR8EKzApMCegJaAjhiFodHRwOi8vd2FpZnUubG9jYWwvbmV0d29yay1jYS5j
cmwwFwYDVR0gBBAwDjAFBgMqBAcwBQYDKgQIMA0GCSqGSIb3DQEBCwUAA4IBAQCq
Kz2jw6xP2Q3erGSdfe3w1e3hrzOHCfhigUUxNLxMWCpz913EJ94J9ay3Jk5u15HD
2qwWFhIOksAp0tyIOQZzaQpsTGewFTT4vUQQMABKYuuxSHG7EBv8de0NYIgYmMeq
I6FLuDivYDASojjJfOwmRpmunKmajuNCU5T/pHJ4bf/AgsyE3ZJw7rGxdoADuX8j
GjAYcdCpyXSnUBQzU3PTcQM8zdTkxZAEcGDRtPfIAcR+1DOgI/0VsiBc6StjtZ1v
BoygrzJiptzbie4/v9xnUHpThmY6LHYDGDOOUd4JFZT2aCDG7QAo7jAV814YmP1q
l41Yuilf88cXINL+KfwK
-----END CERTIFICATE-----
Certificate:
    Data:
        Version: 3 (0x2)
        Serial Number: 2 (0x2)
        Signature Algorithm: sha256WithRSAEncryption
        Issuer: C=DE, O=Noice Waifu Corp., OU=Waifu CA, CN=The Waifu CA
        Validity
            Not Before: Dec 12 12:49:02 2023 GMT
            Not After : Sep  9 12:49:02 2031 GMT
        Subject: C=DE, O=Noice Waifu Corp., OU=Waifu Network CA, CN=The Waifu Network CA
        Subject Public Key Info:
            Public Key Algorithm: rsaEncryption
                Public-Key: (2048 bit)
                Modulus:
                    00:c1:3a:91:71:24:1b:8e:e4:3d:93:c1:5d:2f:19:
                    dd:c5:7f:7c:96:8d:e7:6e:89:63:23:5a:f6:69:e3:
                    4a:9f:27:7a:02:53:88:5e:6c:b1:1a:24:26:28:8f:
                    9c:c9:b2:fc:70:db:49:1a:d6:52:60:d1:49:ec:a8:
                    4c:a3:08:86:10:dd:45:68:23:06:d9:a4:c5:af:7b:
                    df:18:d8:5a:e3:a8:9d:19:eb:f9:29:82:7e:57:f8:
                    64:0b:af:6b:87:c4:05:19:22:b5:d6:8f:0f:22:f2:
                    a3:cd:0d:f1:30:bc:95:7c:3f:f7:07:33:44:3e:d9:
                    3d:b0:35:d7:35:70:f6:24:e9:ad:71:ad:9e:1b:9c:
                    b8:7b:e0:73:05:bb:a1:38:e0:cb:b5:04:5c:03:00:
                    7b:84:59:1d:d3:1e:85:c3:8a:43:af:d9:1e:0a:64:
                    62:da:e0:3b:50:d3:85:5e:a1:0c:58:22:02:e0:a7:
                    3a:90:ce:70:8e:ac:8c:e0:e2:02:02:7f:81:e9:34:
                    c7:5e:02:c8:b8:33:52:c2:aa:c3:22:7c:6f:64:8e:
                    f4:17:bd:66:8e:bf:99:48:15:34:60:86:04:78:50:
                    0b:04:1a:49:d8:7c:cf:04:c1:58:8d:97:d5:25:a8:
                    88:80:65:57:35:08:ee:81:31:8f:55:27:16:a1:9a:
                    88:5f
                Exponent: 65537 (0x10001)
        X509v3 extensions:
            X509v3 Key Usage: critical
                Certificate Sign, CRL Sign
            X509v3 Basic Constraints: critical
                CA:TRUE
            X509v3 Subject Key Identifier: 
                0D:88:4B:B5:3D:67:00:25:CF:AC:BD:10:BF:D6:E6:3D:4D:E0:25:1F
            X509v3 Authority Key Identifier: 
                1D:61:48:CB:11:20:4E:CC:CF:AD:1C:A3:19:06:EB:06:64:37:C9:A5
            Authority Information Access: 
                CA Issuers - URI:http://waifu.local/root-ca.cer
            X509v3 CRL Distribution Points: 
                Full Name:
                  URI:http://waifu.local/root-ca.crl
            X509v3 Certificate Policies: 
                Policy: Waifu ASSurance
                Policy: Waifu 8008
    Signature Algorithm: sha256WithRSAEncryption
    Signature Value:
        78:4f:ea:3e:79:4e:ad:dc:d2:f8:8e:50:ee:93:1b:e9:b1:14:
        59:50:a1:a7:57:93:21:78:62:bd:50:41:8f:d6:21:0c:41:5c:
        e7:ab:ef:9d:43:47:f9:79:36:1a:0a:75:86:ff:44:29:4d:43:
        13:ad:44:05:92:ac:6c:8a:0e:ab:0c:2c:34:49:15:dd:f3:20:
        90:d1:58:9e:9c:7c:93:70:f3:fd:02:b4:70:d5:86:f3:dd:fc:
        68:63:37:23:b3:34:77:10:5f:d4:7d:4f:6f:65:87:ff:8b:57:
        c6:97:7f:56:f6:60:60:83:0d:63:e7:b4:8d:68:da:86:61:26:
        5a:98:aa:85:eb:9c:2d:68:00:fe:3d:c4:7a:1d:f2:24:62:42:
        95:2b:ce:98:82:93:86:98:5a:45:22:c2:28:12:e1:9f:e6:93:
        6b:fe:d3:7f:77:0a:14:72:bc:f2:d9:a4:92:fc:c8:c2:65:c0:
        29:a7:8d:1a:b2:6a:0c:cf:82:27:46:3b:1c:b5:2d:15:d7:04:
        8b:55:a4:b3:4d:5b:af:ef:81:b0:23:7f:bf:82:d8:7a:2f:67:
        be:6e:df:62:ca:0d:a5:c5:2b:f6:59:8e:8b:cc:0c:c3:ef:83:
        68:cc:b3:a2:27:1b:36:41:50:be:ec:9e:1f:fb:d2:4d:4a:f2:
        eb:20:87:b0
-----BEGIN CERTIFICATE-----
MIIEHDCCAwSgAwIBAgIBAjANBgkqhkiG9w0BAQsFADBTMQswCQYDVQQGEwJERTEa
MBgGA1UECgwRTm9pY2UgV2FpZnUgQ29ycC4xETAPBgNVBAsMCFdhaWZ1IENBMRUw
EwYDVQQDDAxUaGUgV2FpZnUgQ0EwHhcNMjMxMjEyMTI0OTAyWhcNMzEwOTA5MTI0
OTAyWjBjMQswCQYDVQQGEwJERTEaMBgGA1UECgwRTm9pY2UgV2FpZnUgQ29ycC4x
GTAXBgNVBAsMEFdhaWZ1IE5ldHdvcmsgQ0ExHTAbBgNVBAMMFFRoZSBXYWlmdSBO
ZXR3b3JrIENBMIIBIjANBgkqhkiG9w0BAQEFAAOCAQ8AMIIBCgKCAQEAwTqRcSQb
juQ9k8FdLxndxX98lo3nboljI1r2aeNKnyd6AlOIXmyxGiQmKI+cybL8cNtJGtZS
YNFJ7KhMowiGEN1FaCMG2aTFr3vfGNha46idGev5KYJ+V/hkC69rh8QFGSK11o8P
IvKjzQ3xMLyVfD/3BzNEPtk9sDXXNXD2JOmtca2eG5y4e+BzBbuhOODLtQRcAwB7
hFkd0x6Fw4pDr9keCmRi2uA7UNOFXqEMWCIC4Kc6kM5wjqyM4OICAn+B6TTHXgLI
uDNSwqrDInxvZI70F71mjr+ZSBU0YIYEeFALBBpJ2HzPBMFYjZfVJaiIgGVXNQju
gTGPVScWoZqIXwIDAQABo4HqMIHnMA4GA1UdDwEB/wQEAwIBBjAPBgNVHRMBAf8E
BTADAQH/MB0GA1UdDgQWBBQNiEu1PWcAJc+svRC/1uY9TeAlHzAfBgNVHSMEGDAW
gBQdYUjLESBOzM+tHKMZBusGZDfJpTA6BggrBgEFBQcBAQQuMCwwKgYIKwYBBQUH
MAKGHmh0dHA6Ly93YWlmdS5sb2NhbC9yb290LWNhLmNlcjAvBgNVHR8EKDAmMCSg
IqAghh5odHRwOi8vd2FpZnUubG9jYWwvcm9vdC1jYS5jcmwwFwYDVR0gBBAwDjAF
BgMqBAcwBQYDKgQIMA0GCSqGSIb3DQEBCwUAA4IBAQB4T+o+eU6t3NL4jlDukxvp
sRRZUKGnV5MheGK9UEGP1iEMQVznq++dQ0f5eTYaCnWG/0QpTUMTrUQFkqxsig6r
DCw0SRXd8yCQ0VienHyTcPP9ArRw1Ybz3fxoYzcjszR3EF/UfU9vZYf/i1fGl39W
9mBggw1j57SNaNqGYSZamKqF65wtaAD+PcR6HfIkYkKVK86YgpOGmFpFIsIoEuGf
5pNr/tN/dwoUcrzy2aSS/MjCZcApp40asmoMz4InRjsctS0V1wSLVaSzTVuv74Gw
I3+/gth6L2e+bt9iyg2lxSv2WY6LzAzD74NozLOiJxs2QVC+7J4f+9JNSvLrIIew
-----END CERTIFICATE-----
