Certificate:
    Data:
        Version: 3 (0x2)
        Serial Number: 1 (0x1)
        Signature Algorithm: sha256WithRSAEncryption
        Issuer: C=DE, O=Noice Waifu Corp., OU=Waifu CA, CN=The Waifu CA
        Validity
            Not Before: Dec 12 12:34:33 2023 GMT
            Not After : Dec 14 12:34:33 2033 GMT
        Subject: C=DE, O=Noice Waifu Corp., OU=Waifu CA, CN=The Waifu CA
        Subject Public Key Info:
            Public Key Algorithm: rsaEncryption
                Public-Key: (2048 bit)
                Modulus:
                    00:a7:77:09:7e:9f:33:af:dc:11:db:17:ab:9e:d0:
                    ea:90:2f:b7:35:71:79:0d:55:f9:c9:78:51:f2:42:
                    1a:54:77:6f:7d:76:c5:30:29:46:a0:3c:f2:f2:5a:
                    37:b8:96:8e:f7:9a:06:92:2d:57:f8:03:da:42:7c:
                    24:91:6c:6d:93:25:0c:dd:b6:73:c8:16:b6:f0:e0:
                    2c:3f:93:1f:41:c5:be:44:27:af:22:46:66:46:d5:
                    b1:01:52:60:7b:22:54:7e:23:ef:14:46:d9:f4:04:
                    4d:43:ac:27:b0:3f:e0:94:ee:bc:e9:3b:42:2e:4f:
                    ca:1b:8e:76:27:90:3c:27:b9:e4:9b:ef:4e:de:c0:
                    10:20:30:d7:ab:9c:96:ca:30:fc:a4:fe:39:ed:34:
                    3e:48:bd:5a:af:9b:b1:3a:88:c8:96:f6:e5:6b:95:
                    f1:dc:bb:35:14:f7:84:1f:5d:35:e6:7e:52:6e:70:
                    fe:fb:0d:46:fe:e7:c8:84:2a:55:88:4e:d1:2b:96:
                    d0:1c:20:ed:59:13:17:c9:90:6b:d2:c7:3d:61:b4:
                    ed:87:ba:63:2d:61:ba:9c:e5:7d:8f:eb:4a:59:55:
                    0c:25:18:3a:61:35:a8:3b:7b:b9:21:5a:b1:00:b1:
                    0e:86:85:34:b4:01:92:b9:60:60:7f:14:77:0d:69:
                    1c:0d
                Exponent: 65537 (0x10001)
        X509v3 extensions:
            X509v3 Key Usage: critical
                Certificate Sign, CRL Sign
            X509v3 Basic Constraints: critical
                CA:TRUE
            X509v3 Subject Key Identifier: 
                1D:61:48:CB:11:20:4E:CC:CF:AD:1C:A3:19:06:EB:06:64:37:C9:A5
            X509v3 Authority Key Identifier: 
                1D:61:48:CB:11:20:4E:CC:CF:AD:1C:A3:19:06:EB:06:64:37:C9:A5
    Signature Algorithm: sha256WithRSAEncryption
    Signature Value:
        52:51:59:c9:30:69:cd:9d:cb:f2:9b:d5:cc:92:b9:8b:c9:00:
        f9:a7:04:42:a6:88:13:96:df:1a:19:99:4d:22:9e:75:f8:5d:
        5e:ad:67:9e:ae:6f:3c:8c:f3:c6:6b:58:cc:9c:0b:a3:e6:13:
        ff:d1:61:fe:08:60:ef:9a:1d:6b:11:60:dd:2d:53:3c:ec:a9:
        c3:fb:91:d4:6c:1c:81:e3:43:75:9b:ec:12:59:05:20:e7:19:
        7c:1e:09:4b:ff:b9:9e:ca:8c:40:25:91:21:2e:ff:9f:66:02:
        56:10:f8:06:e8:31:45:bb:df:ae:99:7d:38:ab:2a:72:5b:56:
        b3:5d:03:d3:78:0e:b3:4c:6b:c0:10:35:85:32:fa:0d:2c:be:
        2c:3c:02:d0:11:1b:83:5e:12:9d:97:9b:f4:4c:16:cf:31:66:
        c8:18:62:f8:aa:4c:1e:cd:b4:cf:67:07:d8:0d:9c:26:a0:8a:
        cb:cc:92:ce:ba:ec:60:7e:07:1a:e2:75:7c:ad:e0:6b:01:97:
        d4:af:3a:55:28:b6:43:03:fc:80:fc:2f:71:ad:ec:00:78:05:
        27:8a:1f:5a:bf:22:27:79:e3:9d:69:ff:4d:a2:20:e2:b5:c8:
        2a:b8:4e:9d:32:a9:5f:ca:dc:39:d7:a9:17:36:e4:65:ba:4d:
        48:2e:7c:52
-----BEGIN CERTIFICATE-----
MIIDhDCCAmygAwIBAgIBATANBgkqhkiG9w0BAQsFADBTMQswCQYDVQQGEwJERTEa
MBgGA1UECgwRTm9pY2UgV2FpZnUgQ29ycC4xETAPBgNVBAsMCFdhaWZ1IENBMRUw
EwYDVQQDDAxUaGUgV2FpZnUgQ0EwHhcNMjMxMjEyMTIzNDMzWhcNMzMxMjE0MTIz
NDMzWjBTMQswCQYDVQQGEwJERTEaMBgGA1UECgwRTm9pY2UgV2FpZnUgQ29ycC4x
ETAPBgNVBAsMCFdhaWZ1IENBMRUwEwYDVQQDDAxUaGUgV2FpZnUgQ0EwggEiMA0G
CSqGSIb3DQEBAQUAA4IBDwAwggEKAoIBAQCndwl+nzOv3BHbF6ue0OqQL7c1cXkN
VfnJeFHyQhpUd299dsUwKUagPPLyWje4lo73mgaSLVf4A9pCfCSRbG2TJQzdtnPI
Frbw4Cw/kx9Bxb5EJ68iRmZG1bEBUmB7IlR+I+8URtn0BE1DrCewP+CU7rzpO0Iu
T8objnYnkDwnueSb707ewBAgMNernJbKMPyk/jntND5IvVqvm7E6iMiW9uVrlfHc
uzUU94QfXTXmflJucP77DUb+58iEKlWITtErltAcIO1ZExfJkGvSxz1htO2HumMt
Ybqc5X2P60pZVQwlGDphNag7e7khWrEAsQ6GhTS0AZK5YGB/FHcNaRwNAgMBAAGj
YzBhMA4GA1UdDwEB/wQEAwIBBjAPBgNVHRMBAf8EBTADAQH/MB0GA1UdDgQWBBQd
YUjLESBOzM+tHKMZBusGZDfJpTAfBgNVHSMEGDAWgBQdYUjLESBOzM+tHKMZBusG
ZDfJpTANBgkqhkiG9w0BAQsFAAOCAQEAUlFZyTBpzZ3L8pvVzJK5i8kA+acEQqaI
E5bfGhmZTSKedfhdXq1nnq5vPIzzxmtYzJwLo+YT/9Fh/ghg75odaxFg3S1TPOyp
w/uR1GwcgeNDdZvsElkFIOcZfB4JS/+5nsqMQCWRIS7/n2YCVhD4BugxRbvfrpl9
OKsqcltWs10D03gOs0xrwBA1hTL6DSy+LDwC0BEbg14SnZeb9EwWzzFmyBhi+KpM
Hs20z2cH2A2cJqCKy8ySzrrsYH4HGuJ1fK3gawGX1K86VSi2QwP8gPwvca3sAHgF
J4ofWr8iJ3njnWn/TaIg4rXIKrhOnTKpX8rcOdepFzbkZbpNSC58Ug==
-----END CERTIFICATE-----
