Certificate:
    Data:
        Version: 3 (0x2)
        Serial Number: 2 (0x2)
        Signature Algorithm: sha256WithRSAEncryption
        Issuer: C=DE, O=Noice Waifu Corp., OU=Waifu CA, CN=The Waifu CA
        Validity
            Not Before: Nov 24 14:52:18 2023 GMT
            Not After : Nov 25 14:52:18 2028 GMT
        Subject: C=DE, O=Noice Waifu Corp., OU=Waifu Network CA, CN=The Waifu Network CA
        Subject Public Key Info:
            Public Key Algorithm: rsaEncryption
                Public-Key: (2048 bit)
                Modulus:
                    00:b0:17:95:83:22:44:6c:17:d9:9f:b0:c3:f6:eb:
                    3b:89:da:45:ef:d8:92:fa:08:4b:81:6e:c4:f9:65:
                    59:80:f9:8e:e8:c0:27:59:d7:1f:20:30:6b:98:75:
                    bc:81:18:b5:2b:a8:25:24:19:5a:8e:ea:73:b9:bc:
                    ce:8b:31:be:36:28:cc:be:3a:77:80:fe:6f:fe:31:
                    8f:e7:be:b0:45:15:c5:56:15:ec:3f:53:1b:13:d5:
                    65:15:97:92:37:e0:e0:8c:0e:f1:44:0a:72:5d:83:
                    9b:3e:6d:32:f8:bf:f4:d0:7d:33:72:89:1b:e0:44:
                    f6:8b:da:ab:15:a3:cc:5d:15:7a:05:b1:be:46:0d:
                    38:f7:90:f4:eb:3f:24:e5:9c:f5:11:ed:5d:79:8d:
                    33:49:c0:08:b2:09:97:f9:40:47:06:ab:27:df:d3:
                    85:4b:9b:b3:a1:83:76:84:8c:0e:14:65:e6:bd:24:
                    7c:67:06:ec:c0:2a:15:cc:ab:e3:75:af:be:20:b7:
                    ec:60:50:dc:30:c5:a6:ea:3e:bc:ca:d8:20:5b:97:
                    8c:5e:76:be:14:1d:27:23:10:24:1c:42:42:8f:9b:
                    92:14:62:b5:88:0e:9b:56:38:cb:66:ea:ac:e5:c4:
                    93:bb:b3:ab:5f:fa:60:84:b7:24:11:05:c2:30:84:
                    37:75
                Exponent: 65537 (0x10001)
        X509v3 extensions:
            X509v3 Key Usage: critical
                Certificate Sign, CRL Sign
            X509v3 Basic Constraints: critical
                CA:TRUE
            X509v3 Subject Key Identifier: 
                46:4A:50:B7:C3:2B:BD:6C:17:22:85:A7:72:B5:95:40:01:73:C6:75
            X509v3 Authority Key Identifier: 
                12:FE:5F:32:85:98:79:AB:EE:2F:A3:77:1E:17:7C:CC:03:C6:B0:9A
            Authority Information Access: 
                CA Issuers - URI:http://waifu.local/root-ca.cer
            X509v3 CRL Distribution Points: 
                Full Name:
                  URI:http://waifu.local/root-ca.crl
            X509v3 Certificate Policies: 
                Policy: Waifu ASSurance
                Policy: Waifu 8008
    Signature Algorithm: sha256WithRSAEncryption
    Signature Value:
        34:e6:7b:af:d8:bd:75:fd:6d:de:9b:e4:67:58:a1:01:b4:cd:
        d2:63:30:94:dd:8f:dd:11:3f:9e:9a:ca:32:8b:85:42:2e:6b:
        d7:08:a8:b0:27:6e:ce:37:0c:60:ab:a6:4f:be:d3:c3:d0:ae:
        39:ea:f6:88:9d:a1:8b:48:49:8c:de:bc:cf:d7:b3:ac:84:32:
        71:b0:61:71:eb:3e:8e:c1:3f:a3:a7:05:73:42:e7:f9:d6:48:
        fd:1d:23:fe:ee:d4:10:c5:c5:a6:29:e7:57:71:51:98:88:40:
        2d:0b:be:e0:fa:05:25:0e:7a:3a:ec:66:85:69:55:b8:3b:d3:
        67:2e:72:ca:37:ee:b4:7c:1f:e1:7a:37:b0:57:13:39:6b:8a:
        ae:d7:b4:e7:03:c0:e1:8c:51:8f:3b:99:f4:0b:4c:d4:8e:ec:
        2e:be:5b:cb:e3:94:ac:72:2d:11:b1:02:7d:39:14:fc:fd:ac:
        b5:b6:fa:8d:42:9f:ae:a4:03:20:7d:68:07:61:26:42:ab:3f:
        a0:34:ec:08:70:8a:ed:78:30:6d:e6:1a:b3:b5:42:f6:af:e2:
        b8:ef:63:99:8b:02:56:3d:92:28:10:55:90:c9:79:cf:82:e6:
        e9:1c:f9:a8:c4:4c:14:56:a9:98:d2:1a:4d:69:b5:0b:e4:ff:
        94:8d:eb:f4
-----BEGIN CERTIFICATE-----
MIIEHDCCAwSgAwIBAgIBAjANBgkqhkiG9w0BAQsFADBTMQswCQYDVQQGEwJERTEa
MBgGA1UECgwRTm9pY2UgV2FpZnUgQ29ycC4xETAPBgNVBAsMCFdhaWZ1IENBMRUw
EwYDVQQDDAxUaGUgV2FpZnUgQ0EwHhcNMjMxMTI0MTQ1MjE4WhcNMjgxMTI1MTQ1
MjE4WjBjMQswCQYDVQQGEwJERTEaMBgGA1UECgwRTm9pY2UgV2FpZnUgQ29ycC4x
GTAXBgNVBAsMEFdhaWZ1IE5ldHdvcmsgQ0ExHTAbBgNVBAMMFFRoZSBXYWlmdSBO
ZXR3b3JrIENBMIIBIjANBgkqhkiG9w0BAQEFAAOCAQ8AMIIBCgKCAQEAsBeVgyJE
bBfZn7DD9us7idpF79iS+ghLgW7E+WVZgPmO6MAnWdcfIDBrmHW8gRi1K6glJBla
jupzubzOizG+NijMvjp3gP5v/jGP576wRRXFVhXsP1MbE9VlFZeSN+DgjA7xRApy
XYObPm0y+L/00H0zcokb4ET2i9qrFaPMXRV6BbG+Rg0495D06z8k5Zz1Ee1deY0z
ScAIsgmX+UBHBqsn39OFS5uzoYN2hIwOFGXmvSR8ZwbswCoVzKvjda++ILfsYFDc
MMWm6j68ytggW5eMXna+FB0nIxAkHEJCj5uSFGK1iA6bVjjLZuqs5cSTu7OrX/pg
hLckEQXCMIQ3dQIDAQABo4HqMIHnMA4GA1UdDwEB/wQEAwIBBjAPBgNVHRMBAf8E
BTADAQH/MB0GA1UdDgQWBBRGSlC3wyu9bBcihadytZVAAXPGdTAfBgNVHSMEGDAW
gBQS/l8yhZh5q+4vo3ceF3zMA8awmjA6BggrBgEFBQcBAQQuMCwwKgYIKwYBBQUH
MAKGHmh0dHA6Ly93YWlmdS5sb2NhbC9yb290LWNhLmNlcjAvBgNVHR8EKDAmMCSg
IqAghh5odHRwOi8vd2FpZnUubG9jYWwvcm9vdC1jYS5jcmwwFwYDVR0gBBAwDjAF
BgMqBAcwBQYDKgQIMA0GCSqGSIb3DQEBCwUAA4IBAQA05nuv2L11/W3em+RnWKEB
tM3SYzCU3Y/dET+emsoyi4VCLmvXCKiwJ27ONwxgq6ZPvtPD0K456vaInaGLSEmM
3rzP17OshDJxsGFx6z6OwT+jpwVzQuf51kj9HSP+7tQQxcWmKedXcVGYiEAtC77g
+gUlDno67GaFaVW4O9NnLnLKN+60fB/hejewVxM5a4qu17TnA8DhjFGPO5n0C0zU
juwuvlvL45Ssci0RsQJ9ORT8/ay1tvqNQp+upAMgfWgHYSZCqz+gNOwIcIrteDBt
5hqztUL2r+K472OZiwJWPZIoEFWQyXnPgubpHPmoxEwUVqmY0hpNabUL5P+Ujev0
-----END CERTIFICATE-----
